target datalayout = "e-m:e-p270:32:32-p271:32:32-p272:64:64-i64:64-i128:128-f80:128-n8:16:32:64-S128"
target triple = "x86_64-pc-linux-gnu"

%struct.AHCIState = type { ptr, %struct.AHCIControlRegs, %struct.MemoryRegion, %struct.MemoryRegion, i32, i32, i32, ptr, ptr }
%struct.AHCIControlRegs = type { i32, i32, i32, i32, i32 }
%struct.MemoryRegion = type { %struct.Object, i8, i8, i8, i8, i8, i8, i8, i8, i8, i8, ptr, ptr, ptr, ptr, ptr, ptr, i32, i128, i64, ptr, i64, i8, i8, i8, i8, ptr, i64, i32, %union.anon, %union.anon.0, %union.anon.1, ptr, i32, ptr, ptr, i8 }
%struct.Object = type { ptr, ptr, ptr, i32, ptr }
%union.anon = type { %struct.QTailQLink }
%struct.QTailQLink = type { ptr, ptr }
%union.anon.0 = type { %struct.QTailQLink }
%union.anon.1 = type { %struct.QTailQLink }
%struct.AHCIDevice = type { %struct.IDEDMA, %struct.IDEBus, i32, i32, i32, %struct.AHCIPortRegs, ptr, ptr, ptr, ptr, i8, i32, i8, ptr, [32 x %struct.NCQTransferState], %struct.MemReentrancyGuard }
%struct.IDEDMA = type { ptr, %struct.QEMUIOVector, ptr }
%struct.QEMUIOVector = type { ptr, i32, %union.anon.3 }
%union.anon.3 = type { %struct.anon.4 }
%struct.anon.4 = type { i32, %struct.iovec }
%struct.iovec = type { ptr, i64 }
%struct.IDEBus = type { %struct.BusState, ptr, ptr, [2 x %struct.IDEState], ptr, i32, i32, ptr, i8, i8, ptr, i32, i8, i64, i32, %struct.PortioList, %struct.PortioList, ptr }
%struct.BusState = type { %struct.Object, ptr, ptr, ptr, i32, i8, i8, i32, %union.BusChildHead, %struct.BusStateEntry, %struct.ResettableState }
%union.BusChildHead = type { %struct.QTailQLink }
%struct.BusStateEntry = type { ptr, ptr }
%struct.ResettableState = type { i32, i8, i8 }
%struct.IDEState = type { ptr, i8, i32, i32, i32, i32, i32, i32, i32, i64, i32, i32, [512 x i8], i32, [21 x i8], [41 x i8], i8, i64, i8, i8, i32, i8, i8, i8, i8, i8, i8, i8, i8, i8, i8, i8, i8, i8, ptr, [9 x i8], %struct.unreported_events, i8, i8, i8, i8, i8, i32, i32, i32, i32, i32, i32, %struct.BlockAcctCookie, ptr, %struct.QEMUIOVector, %struct.anon.6, i64, i32, %struct.QEMUSGList, i32, ptr, ptr, ptr, ptr, i32, i32, i32, i8, ptr, i32, i8, i32, ptr, i32, i32, i8, i8, i32, i8, ptr, i32 }
%struct.unreported_events = type { i8, i8 }
%struct.BlockAcctCookie = type { i64, i64, i32 }
%struct.anon.6 = type { ptr }
%struct.QEMUSGList = type { ptr, i32, i32, i64, ptr, ptr }
%struct.PortioList = type { ptr, ptr, ptr, i32, i32, ptr, ptr, ptr, i8 }
%struct.AHCIPortRegs = type { i32, i32, i32, i32, i32, i32, i32, i32, i32, i32, i32, i32, i32, i32, i32, i32 }
%struct.NCQTransferState = type { ptr, ptr, ptr, %struct.QEMUSGList, %struct.BlockAcctCookie, i32, i64, i8, i8, i8, i8, i8 }
%struct.MemReentrancyGuard = type { i8 }
%struct.AHCICmdHdr = type { i16, i16, i32, i64, [4 x i32] }

@.str.197 = private unnamed_addr constant [78 x i8] c"AHCI: DMA engine should be off, but status bit indicates it is still running.\00", align 1
@.str.198 = private unnamed_addr constant [81 x i8] c"AHCI: FIS RX engine should be off, but status bit indicates it is still running.\00", align 1

; Function Attrs: nounwind sspstrong uwtable
define internal ptr @get_cmd_header(ptr noundef %0, i8 noundef zeroext %1, i8 noundef zeroext %2) #0 {
  %4 = alloca ptr, align 8
  %5 = alloca ptr, align 8
  %6 = alloca i8, align 1
  %7 = alloca i8, align 1
  store ptr %0, ptr %5, align 8
  store i8 %1, ptr %6, align 1
  store i8 %2, ptr %7, align 1
  %8 = load i8, ptr %6, align 1
  %9 = zext i8 %8 to i32
  %10 = load ptr, ptr %5, align 8
  %11 = getelementptr inbounds nuw %struct.AHCIState, ptr %10, i32 0, i32 6
  %12 = load i32, ptr %11, align 8
  %13 = icmp uge i32 %9, %12
  br i1 %13, label %18, label %14

14:                                               ; preds = %3
  %15 = load i8, ptr %7, align 1
  %16 = zext i8 %15 to i32
  %17 = icmp sge i32 %16, 32
  br i1 %17, label %18, label %19

18:                                               ; preds = %14, %3
  store ptr null, ptr %4, align 8
  br label %44

19:                                               ; preds = %14
  %20 = load ptr, ptr %5, align 8
  %21 = getelementptr inbounds nuw %struct.AHCIState, ptr %20, i32 0, i32 0
  %22 = load ptr, ptr %21, align 16
  %23 = load i8, ptr %6, align 1
  %24 = zext i8 %23 to i64
  %25 = getelementptr inbounds nuw %struct.AHCIDevice, ptr %22, i64 %24
  %26 = getelementptr inbounds nuw %struct.AHCIDevice, ptr %25, i32 0, i32 8
  %27 = load ptr, ptr %26, align 8
  %28 = icmp ne ptr %27, null
  br i1 %28, label %29, label %41

29:                                               ; preds = %19
  %30 = load ptr, ptr %5, align 8
  %31 = getelementptr inbounds nuw %struct.AHCIState, ptr %30, i32 0, i32 0
  %32 = load ptr, ptr %31, align 16
  %33 = load i8, ptr %6, align 1
  %34 = zext i8 %33 to i64
  %35 = getelementptr inbounds nuw %struct.AHCIDevice, ptr %32, i64 %34
  %36 = getelementptr inbounds nuw %struct.AHCIDevice, ptr %35, i32 0, i32 8
  %37 = load ptr, ptr %36, align 8
  %38 = load i8, ptr %7, align 1
  %39 = zext i8 %38 to i64
  %40 = getelementptr inbounds nuw %struct.AHCICmdHdr, ptr %37, i64 %39
  br label %42

41:                                               ; preds = %19
  br label %42

42:                                               ; preds = %41, %29
  %43 = phi ptr [ %40, %29 ], [ null, %41 ]
  store ptr %43, ptr %4, align 8
  br label %44

44:                                               ; preds = %42, %18
  %45 = load ptr, ptr %4, align 8
  ret ptr %45
}

; Function Attrs: nounwind sspstrong uwtable
define internal i32 @is_ncq(i8 noundef zeroext %0) #0 {
  %2 = alloca i32, align 4
  %3 = alloca i8, align 1
  store i8 %0, ptr %3, align 1
  %4 = load i8, ptr %3, align 1
  %5 = zext i8 %4 to i32
  switch i32 %5, label %7 [
    i32 96, label %6
    i32 97, label %6
    i32 99, label %6
    i32 101, label %6
    i32 100, label %6
  ]

6:                                                ; preds = %1, %1, %1, %1, %1
  store i32 1, ptr %2, align 4
  br label %8

7:                                                ; preds = %1
  store i32 0, ptr %2, align 4
  br label %8

8:                                                ; preds = %7, %6
  %9 = load i32, ptr %2, align 4
  ret i32 %9
}

; Function Attrs: nounwind sspstrong uwtable
define internal i32 @ahci_state_post_load(ptr noundef %0, i32 noundef %1) #0 {
  %3 = alloca i32, align 4
  %4 = alloca ptr, align 8
  %5 = alloca i32, align 4
  %6 = alloca i32, align 4
  %7 = alloca i32, align 4
  %8 = alloca ptr, align 8
  %9 = alloca ptr, align 8
  %10 = alloca ptr, align 8
  %11 = alloca ptr, align 8
  %12 = alloca i32, align 4
  store ptr %0, ptr %4, align 8
  store i32 %1, ptr %5, align 4
  call void @llvm.lifetime.start.p0(i64 4, ptr %6) #15
  store i32 0, ptr %6, align 4, !annotation !4
  call void @llvm.lifetime.start.p0(i64 4, ptr %7) #15
  store i32 0, ptr %7, align 4, !annotation !4
  call void @llvm.lifetime.start.p0(i64 8, ptr %8) #15
  store ptr null, ptr %8, align 8, !annotation !4
  call void @llvm.lifetime.start.p0(i64 8, ptr %9) #15
  store ptr null, ptr %9, align 8, !annotation !4
  call void @llvm.lifetime.start.p0(i64 8, ptr %10) #15
  store ptr null, ptr %10, align 8, !annotation !4
  call void @llvm.lifetime.start.p0(i64 8, ptr %11) #15
  %13 = load ptr, ptr %4, align 8
  store ptr %13, ptr %11, align 8
  store i32 0, ptr %6, align 4
  br label %14

14:                                               ; preds = %188, %2
  %15 = load i32, ptr %6, align 4
  %16 = load ptr, ptr %11, align 8
  %17 = getelementptr inbounds nuw %struct.AHCIState, ptr %16, i32 0, i32 6
  %18 = load i32, ptr %17, align 8
  %19 = icmp ult i32 %15, %18
  br i1 %19, label %20, label %191

20:                                               ; preds = %14
  %21 = load ptr, ptr %11, align 8
  %22 = getelementptr inbounds nuw %struct.AHCIState, ptr %21, i32 0, i32 0
  %23 = load ptr, ptr %22, align 16
  %24 = load i32, ptr %6, align 4
  %25 = sext i32 %24 to i64
  %26 = getelementptr inbounds %struct.AHCIDevice, ptr %23, i64 %25
  store ptr %26, ptr %8, align 8
  %27 = load ptr, ptr %8, align 8
  %28 = getelementptr inbounds nuw %struct.AHCIDevice, ptr %27, i32 0, i32 5
  store ptr %28, ptr %10, align 8
  %29 = load ptr, ptr %10, align 8
  %30 = getelementptr inbounds nuw %struct.AHCIPortRegs, ptr %29, i32 0, i32 6
  %31 = load i32, ptr %30, align 4
  %32 = and i32 %31, 1
  %33 = icmp ne i32 %32, 0
  br i1 %33, label %41, label %34

34:                                               ; preds = %20
  %35 = load ptr, ptr %10, align 8
  %36 = getelementptr inbounds nuw %struct.AHCIPortRegs, ptr %35, i32 0, i32 6
  %37 = load i32, ptr %36, align 4
  %38 = and i32 %37, 32768
  %39 = icmp ne i32 %38, 0
  br i1 %39, label %40, label %41

40:                                               ; preds = %34
  call void (ptr, ...) @error_report(ptr noundef @.str.197)
  store i32 -1, ptr %3, align 4
  store i32 1, ptr %12, align 4
  br label %192

41:                                               ; preds = %34, %20
  %42 = load ptr, ptr %10, align 8
  %43 = getelementptr inbounds nuw %struct.AHCIPortRegs, ptr %42, i32 0, i32 6
  %44 = load i32, ptr %43, align 4
  %45 = and i32 %44, 16
  %46 = icmp ne i32 %45, 0
  br i1 %46, label %54, label %47

47:                                               ; preds = %41
  %48 = load ptr, ptr %10, align 8
  %49 = getelementptr inbounds nuw %struct.AHCIPortRegs, ptr %48, i32 0, i32 6
  %50 = load i32, ptr %49, align 4
  %51 = and i32 %50, 16384
  %52 = icmp ne i32 %51, 0
  br i1 %52, label %53, label %54

53:                                               ; preds = %47
  call void (ptr, ...) @error_report(ptr noundef @.str.198)
  store i32 -1, ptr %3, align 4
  store i32 1, ptr %12, align 4
  br label %192

54:                                               ; preds = %47, %41
  %55 = load ptr, ptr %10, align 8
  %56 = getelementptr inbounds nuw %struct.AHCIPortRegs, ptr %55, i32 0, i32 6
  %57 = load i32, ptr %56, align 4
  %58 = and i32 %57, -49153
  store i32 %58, ptr %56, align 4
  %59 = load ptr, ptr %8, align 8
  %60 = call i32 @ahci_cond_start_engines(ptr noundef %59)
  %61 = icmp ne i32 %60, 0
  br i1 %61, label %62, label %63

62:                                               ; preds = %54
  store i32 -1, ptr %3, align 4
  store i32 1, ptr %12, align 4
  br label %192

63:                                               ; preds = %54
  store i32 0, ptr %7, align 4
  br label %64

64:                                               ; preds = %154, %63
  %65 = load i32, ptr %7, align 4
  %66 = icmp slt i32 %65, 32
  br i1 %66, label %67, label %157

67:                                               ; preds = %64
  %68 = load ptr, ptr %8, align 8
  %69 = getelementptr inbounds nuw %struct.AHCIDevice, ptr %68, i32 0, i32 14
  %70 = load i32, ptr %7, align 4
  %71 = sext i32 %70 to i64
  %72 = getelementptr inbounds [32 x %struct.NCQTransferState], ptr %69, i64 0, i64 %71
  store ptr %72, ptr %9, align 8
  %73 = load ptr, ptr %8, align 8
  %74 = load ptr, ptr %9, align 8
  %75 = getelementptr inbounds nuw %struct.NCQTransferState, ptr %74, i32 0, i32 0
  store ptr %73, ptr %75, align 8
  %76 = load ptr, ptr %9, align 8
  %77 = getelementptr inbounds nuw %struct.NCQTransferState, ptr %76, i32 0, i32 10
  %78 = load i8, ptr %77, align 1, !range !11, !noundef !12
  %79 = trunc i8 %78 to i1
  %80 = zext i1 %79 to i32
  %81 = load ptr, ptr %9, align 8
  %82 = getelementptr inbounds nuw %struct.NCQTransferState, ptr %81, i32 0, i32 11
  %83 = load i8, ptr %82, align 4, !range !11, !noundef !12
  %84 = trunc i8 %83 to i1
  %85 = zext i1 %84 to i32
  %86 = icmp ne i32 %80, %85
  br i1 %86, label %87, label %88

87:                                               ; preds = %67
  store i32 -1, ptr %3, align 4
  store i32 1, ptr %12, align 4
  br label %192

88:                                               ; preds = %67
  %89 = load ptr, ptr %9, align 8
  %90 = getelementptr inbounds nuw %struct.NCQTransferState, ptr %89, i32 0, i32 11
  %91 = load i8, ptr %90, align 4, !range !11, !noundef !12
  %92 = trunc i8 %91 to i1
  br i1 %92, label %94, label %93

93:                                               ; preds = %88
  br label %154

94:                                               ; preds = %88
  %95 = load ptr, ptr %9, align 8
  %96 = getelementptr inbounds nuw %struct.NCQTransferState, ptr %95, i32 0, i32 8
  %97 = load i8, ptr %96, align 1
  %98 = call i32 @is_ncq(i8 noundef zeroext %97)
  %99 = icmp ne i32 %98, 0
  br i1 %99, label %101, label %100

100:                                              ; preds = %94
  store i32 -1, ptr %3, align 4
  store i32 1, ptr %12, align 4
  br label %192

101:                                              ; preds = %94
  %102 = load ptr, ptr %9, align 8
  %103 = getelementptr inbounds nuw %struct.NCQTransferState, ptr %102, i32 0, i32 9
  %104 = load i8, ptr %103, align 2
  %105 = zext i8 %104 to i32
  %106 = load ptr, ptr %9, align 8
  %107 = getelementptr inbounds nuw %struct.NCQTransferState, ptr %106, i32 0, i32 7
  %108 = load i8, ptr %107, align 8
  %109 = zext i8 %108 to i32
  %110 = icmp ne i32 %105, %109
  br i1 %110, label %111, label %112

111:                                              ; preds = %101
  store i32 -1, ptr %3, align 4
  store i32 1, ptr %12, align 4
  br label %192

112:                                              ; preds = %101
  %113 = load ptr, ptr %11, align 8
  %114 = load i32, ptr %6, align 4
  %115 = trunc i32 %114 to i8
  %116 = load ptr, ptr %9, align 8
  %117 = getelementptr inbounds nuw %struct.NCQTransferState, ptr %116, i32 0, i32 9
  %118 = load i8, ptr %117, align 2
  %119 = call ptr @get_cmd_header(ptr noundef %113, i8 noundef zeroext %115, i8 noundef zeroext %118)
  %120 = load ptr, ptr %9, align 8
  %121 = getelementptr inbounds nuw %struct.NCQTransferState, ptr %120, i32 0, i32 2
  store ptr %119, ptr %121, align 8
  %122 = load ptr, ptr %9, align 8
  %123 = getelementptr inbounds nuw %struct.NCQTransferState, ptr %122, i32 0, i32 2
  %124 = load ptr, ptr %123, align 8
  %125 = icmp ne ptr %124, null
  br i1 %125, label %127, label %126

126:                                              ; preds = %112
  store i32 -1, ptr %3, align 4
  store i32 1, ptr %12, align 4
  br label %192

127:                                              ; preds = %112
  %128 = load ptr, ptr %9, align 8
  %129 = getelementptr inbounds nuw %struct.NCQTransferState, ptr %128, i32 0, i32 0
  %130 = load ptr, ptr %129, align 8
  %131 = load ptr, ptr %9, align 8
  %132 = getelementptr inbounds nuw %struct.NCQTransferState, ptr %131, i32 0, i32 3
  %133 = load ptr, ptr %9, align 8
  %134 = getelementptr inbounds nuw %struct.NCQTransferState, ptr %133, i32 0, i32 2
  %135 = load ptr, ptr %134, align 8
  %136 = load ptr, ptr %9, align 8
  %137 = getelementptr inbounds nuw %struct.NCQTransferState, ptr %136, i32 0, i32 5
  %138 = load i32, ptr %137, align 8
  %139 = zext i32 %138 to i64
  %140 = mul i64 %139, 512
  %141 = call i32 @ahci_populate_sglist(ptr noundef %130, ptr noundef %132, ptr noundef %135, i64 noundef %140, i64 noundef 0)
  %142 = load ptr, ptr %9, align 8
  %143 = getelementptr inbounds nuw %struct.NCQTransferState, ptr %142, i32 0, i32 5
  %144 = load i32, ptr %143, align 8
  %145 = zext i32 %144 to i64
  %146 = load ptr, ptr %9, align 8
  %147 = getelementptr inbounds nuw %struct.NCQTransferState, ptr %146, i32 0, i32 3
  %148 = getelementptr inbounds nuw %struct.QEMUSGList, ptr %147, i32 0, i32 3
  %149 = load i64, ptr %148, align 8
  %150 = lshr i64 %149, 9
  %151 = icmp ne i64 %145, %150
  br i1 %151, label %152, label %153

152:                                              ; preds = %127
  store i32 -1, ptr %3, align 4
  store i32 1, ptr %12, align 4
  br label %192

153:                                              ; preds = %127
  br label %154

154:                                              ; preds = %153, %93
  %155 = load i32, ptr %7, align 4
  %156 = add i32 %155, 1
  store i32 %156, ptr %7, align 4
  br label %64, !llvm.loop !14

157:                                              ; preds = %64
  %158 = load ptr, ptr %8, align 8
  %159 = getelementptr inbounds nuw %struct.AHCIDevice, ptr %158, i32 0, i32 11
  %160 = load i32, ptr %159, align 4
  %161 = icmp eq i32 %160, -1
  br i1 %161, label %162, label %165

162:                                              ; preds = %157
  %163 = load ptr, ptr %11, align 8
  %164 = load i32, ptr %6, align 4
  call void @check_cmd(ptr noundef %163, i32 noundef %164)
  br label %187

165:                                              ; preds = %157
  %166 = load ptr, ptr %8, align 8
  %167 = getelementptr inbounds nuw %struct.AHCIDevice, ptr %166, i32 0, i32 11
  %168 = load i32, ptr %167, align 4
  %169 = icmp slt i32 %168, 0
  br i1 %169, label %175, label %170

170:                                              ; preds = %165
  %171 = load ptr, ptr %8, align 8
  %172 = getelementptr inbounds nuw %struct.AHCIDevice, ptr %171, i32 0, i32 11
  %173 = load i32, ptr %172, align 4
  %174 = icmp sge i32 %173, 32
  br i1 %174, label %175, label %176

175:                                              ; preds = %170, %165
  store i32 -1, ptr %3, align 4
  store i32 1, ptr %12, align 4
  br label %192

176:                                              ; preds = %170
  %177 = load ptr, ptr %11, align 8
  %178 = load i32, ptr %6, align 4
  %179 = trunc i32 %178 to i8
  %180 = load ptr, ptr %8, align 8
  %181 = getelementptr inbounds nuw %struct.AHCIDevice, ptr %180, i32 0, i32 11
  %182 = load i32, ptr %181, align 4
  %183 = trunc i32 %182 to i8
  %184 = call ptr @get_cmd_header(ptr noundef %177, i8 noundef zeroext %179, i8 noundef zeroext %183)
  %185 = load ptr, ptr %8, align 8
  %186 = getelementptr inbounds nuw %struct.AHCIDevice, ptr %185, i32 0, i32 13
  store ptr %184, ptr %186, align 8
  br label %187

187:                                              ; preds = %176, %162
  br label %188

188:                                              ; preds = %187
  %189 = load i32, ptr %6, align 4
  %190 = add i32 %189, 1
  store i32 %190, ptr %6, align 4
  br label %14, !llvm.loop !15

191:                                              ; preds = %14
  store i32 0, ptr %3, align 4
  store i32 1, ptr %12, align 4
  br label %192

192:                                              ; preds = %191, %175, %152, %126, %111, %100, %87, %62, %53, %40
  call void @llvm.lifetime.end.p0(i64 8, ptr %11) #15
  call void @llvm.lifetime.end.p0(i64 8, ptr %10) #15
  call void @llvm.lifetime.end.p0(i64 8, ptr %9) #15
  call void @llvm.lifetime.end.p0(i64 8, ptr %8) #15
  call void @llvm.lifetime.end.p0(i64 4, ptr %7) #15
  call void @llvm.lifetime.end.p0(i64 4, ptr %6) #15
  %193 = load i32, ptr %3, align 4
  ret i32 %193
}