; Function Attrs: nounwind sspstrong uwtable
define internal range(i32 -1, 1) i32 @ahci_state_post_load(ptr noundef %0, i32 %1) #0 {
  %3 = getelementptr inbounds nuw i8, ptr %0, i64 584
  %4 = load i32, ptr %3, align 8
  %.not78 = icmp eq i32 %4, 0
  br i1 %.not78, label %is_ncq.exit.thread, label %.lr.ph

.lr.ph:                                           ; preds = %2, %76
  %.04672 = phi i32 [ %77, %76 ], [ 0, %2 ]
  %5 = load ptr, ptr %0, align 16
  %6 = sext i32 %.04672 to i64
  %7 = getelementptr inbounds %struct.AHCIDevice, ptr %5, i64 %6
  %8 = getelementptr inbounds nuw i8, ptr %7, i64 2396
  %9 = load i32, ptr %8, align 4
  %10 = and i32 %9, 32769
  %or.cond.not = icmp eq i32 %10, 32768
  br i1 %or.cond.not, label %11, label %12

11:                                               ; preds = %.lr.ph
  tail call void (ptr, ...) @error_report(ptr noundef nonnull @.str.197) #14
  br label %is_ncq.exit.thread

12:                                               ; preds = %.lr.ph
  %13 = and i32 %9, 16400
  %or.cond58.not = icmp eq i32 %13, 16384
  br i1 %or.cond58.not, label %14, label %15

14:                                               ; preds = %12
  tail call void (ptr, ...) @error_report(ptr noundef nonnull @.str.198) #14
  br label %is_ncq.exit.thread

15:                                               ; preds = %12
  %16 = and i32 %9, -49153
  store i32 %16, ptr %8, align 4
  %17 = tail call fastcc i32 @ahci_cond_start_engines(ptr noundef nonnull %7)
  %.not52 = icmp eq i32 %17, 0
  br i1 %.not52, label %.preheader, label %is_ncq.exit.thread

.preheader:                                       ; preds = %15
  %18 = getelementptr inbounds nuw i8, ptr %7, i64 2496
  %19 = and i32 %.04672, 255
  %20 = zext nneg i32 %19 to i64
  br label %21

21:                                               ; preds = %.preheader, %59
  %indvars.iv = phi i64 [ 0, %.preheader ], [ %indvars.iv.next, %59 ]
  %22 = getelementptr inbounds nuw [32 x %struct.NCQTransferState], ptr %18, i64 0, i64 %indvars.iv
  store ptr %7, ptr %22, align 8
  %23 = getelementptr inbounds nuw i8, ptr %22, i64 107
  %24 = load i8, ptr %23, align 1, !range !9, !noundef !10
  %25 = getelementptr inbounds nuw i8, ptr %22, i64 108
  %26 = load i8, ptr %25, align 4, !range !9, !noundef !10
  %.not53 = icmp eq i8 %24, %26
  br i1 %.not53, label %27, label %is_ncq.exit.thread

27:                                               ; preds = %21
  %28 = trunc nuw i8 %24 to i1
  br i1 %28, label %29, label %59

29:                                               ; preds = %27
  %30 = getelementptr inbounds nuw i8, ptr %22, i64 105
  %31 = load i8, ptr %30, align 1
  switch i8 %31, label %is_ncq.exit.thread [
    i8 96, label %is_ncq.exit
    i8 97, label %is_ncq.exit
    i8 99, label %is_ncq.exit
    i8 101, label %is_ncq.exit
    i8 100, label %is_ncq.exit
  ]

is_ncq.exit:                                      ; preds = %29, %29, %29, %29, %29
  %32 = getelementptr inbounds nuw i8, ptr %22, i64 106
  %33 = load i8, ptr %32, align 2
  %34 = getelementptr inbounds nuw i8, ptr %22, i64 104
  %35 = load i8, ptr %34, align 8
  %.not55 = icmp eq i8 %33, %35
  br i1 %.not55, label %36, label %is_ncq.exit.thread

36:                                               ; preds = %is_ncq.exit
  %37 = load i32, ptr %3, align 8
  %38 = icmp ule i32 %37, %19
  %39 = icmp ugt i8 %33, 31
  %or.cond.i = or i1 %39, %38
  br i1 %or.cond.i, label %get_cmd_header.exit.thread, label %40

40:                                               ; preds = %36
  %41 = load ptr, ptr %0, align 16
  %42 = getelementptr inbounds nuw %struct.AHCIDevice, ptr %41, i64 %20, i32 8
  %43 = load ptr, ptr %42, align 8
  %.not.i = icmp eq ptr %43, null
  br i1 %.not.i, label %get_cmd_header.exit.thread, label %get_cmd_header.exit

get_cmd_header.exit.thread:                       ; preds = %36, %40
  %44 = getelementptr inbounds nuw i8, ptr %22, i64 16
  store ptr null, ptr %44, align 8
  br label %is_ncq.exit.thread

get_cmd_header.exit:                              ; preds = %40
  %45 = zext nneg i8 %33 to i64
  %46 = getelementptr inbounds nuw %struct.AHCICmdHdr, ptr %43, i64 %45
  %47 = getelementptr inbounds nuw i8, ptr %22, i64 16
  store ptr %46, ptr %47, align 8
  %48 = getelementptr inbounds nuw i8, ptr %22, i64 24
  %49 = getelementptr inbounds nuw i8, ptr %22, i64 88
  %50 = load i32, ptr %49, align 8
  %51 = zext i32 %50 to i64
  %52 = shl nuw nsw i64 %51, 9
  %53 = tail call fastcc i32 @ahci_populate_sglist(ptr noundef nonnull %7, ptr noundef nonnull %48, ptr noundef nonnull %46, i64 noundef %52, i64 noundef 0)
  %54 = load i32, ptr %49, align 8
  %55 = zext i32 %54 to i64
  %56 = getelementptr inbounds nuw i8, ptr %22, i64 40
  %57 = load i64, ptr %56, align 8
  %58 = lshr i64 %57, 9
  %.not57 = icmp eq i64 %58, %55
  br i1 %.not57, label %59, label %is_ncq.exit.thread

59:                                               ; preds = %get_cmd_header.exit, %27
  %indvars.iv.next = add nuw nsw i64 %indvars.iv, 1
  %exitcond.not = icmp eq i64 %indvars.iv.next, 32
  br i1 %exitcond.not, label %60, label %21, !llvm.loop !14

60:                                               ; preds = %59
  %61 = getelementptr inbounds nuw i8, ptr %7, i64 2476
  %62 = load i32, ptr %61, align 4
  %63 = icmp eq i32 %62, -1
  br i1 %63, label %64, label %65

64:                                               ; preds = %60
  tail call fastcc void @check_cmd(ptr noundef nonnull %0, i32 noundef %.04672)
  br label %76

65:                                               ; preds = %60
  %or.cond59 = icmp ugt i32 %62, 31
  br i1 %or.cond59, label %is_ncq.exit.thread, label %66

66:                                               ; preds = %65
  %67 = load i32, ptr %3, align 8
  %.not = icmp ugt i32 %67, %19
  br i1 %.not, label %68, label %get_cmd_header.exit64

68:                                               ; preds = %66
  %69 = zext nneg i32 %62 to i64
  %70 = load ptr, ptr %0, align 16
  %71 = getelementptr inbounds nuw %struct.AHCIDevice, ptr %70, i64 %20, i32 8
  %72 = load ptr, ptr %71, align 8
  %.not.i62 = icmp eq ptr %72, null
  %73 = getelementptr inbounds nuw %struct.AHCICmdHdr, ptr %72, i64 %69
  %74 = select i1 %.not.i62, ptr null, ptr %73
  br label %get_cmd_header.exit64

get_cmd_header.exit64:                            ; preds = %66, %68
  %.0.i63 = phi ptr [ %74, %68 ], [ null, %66 ]
  %75 = getelementptr inbounds nuw i8, ptr %7, i64 2488
  store ptr %.0.i63, ptr %75, align 8
  br label %76

76:                                               ; preds = %64, %get_cmd_header.exit64
  %77 = add nuw i32 %.04672, 1
  %78 = load i32, ptr %3, align 8
  %79 = icmp ult i32 %77, %78
  br i1 %79, label %.lr.ph, label %is_ncq.exit.thread, !llvm.loop !15

is_ncq.exit.thread:                               ; preds = %15, %65, %76, %29, %get_cmd_header.exit, %is_ncq.exit, %21, %2, %get_cmd_header.exit.thread, %14, %11
  %.0 = phi i32 [ -1, %14 ], [ -1, %11 ], [ -1, %get_cmd_header.exit.thread ], [ 0, %2 ], [ -1, %21 ], [ -1, %is_ncq.exit ], [ -1, %get_cmd_header.exit ], [ -1, %29 ], [ -1, %15 ], [ -1, %65 ], [ 0, %76 ]
  ret i32 %.0
}